; Function Attrs: mustprogress uwtable
define noundef zeroext i1 @_ZNK3net30QuicMultipathSentPacketManager20IsHandshakeConfirmedEv(ptr noundef nonnull readonly align 8 captures(none) dereferenceable(40) %0) unnamed_addr #0 align 2 {
  %2 = tail call noundef ptr @_ZNK3net30QuicMultipathSentPacketManager38MaybeGetSentPacketManagerForActivePathEh(ptr noundef nonnull align 8 dereferenceable(40) %0, i8 noundef zeroext 0)
  %.not = icmp eq ptr %2, null
  br i1 %.not, label %8, label %3

3:                                                ; preds = %1
  %4 = load ptr, ptr %2, align 8, !tbaa !3
  %5 = getelementptr inbounds nuw i8, ptr %4, i64 232
  %6 = load ptr, ptr %5, align 8
  %7 = tail call noundef zeroext i1 %6(ptr noundef nonnull align 8 dereferenceable(8) %2)
  br label %8

8:                                                ; preds = %3, %1
  %9 = phi i1 [ false, %1 ], [ %7, %3 ]
  ret i1 %9
}